(lp0
ccopy_reg
_reconstructor
p1
(cgausspy.gp
GaussianDecomposer
p2
c__builtin__
object
p3
Ntp4
Rp5
(dp6
S'p'
p7
(dp8
S'verbose'
p9
I00
sS'BLFrac'
p10
F0.02
sS'SNR2_thresh'
p11
F3.0
sS'phase'
p12
S'two'
p13
sS'deblend'
p14
I01
sS'perform_final_fit'
p15
I01
sS'alpha2'
p16
I6
sS'plot'
p17
I00
sS'alpha1'
p18
F2.5
sS'training_results'
p19
NsS'mode'
p20
S'conv'
p21
sS'SNR_thresh'
p22
F3.0
ssbaS'agd_gass_data.pickle'
p23
aNa.